target datalayout = "e-m:e-p270:32:32-p271:32:32-p272:64:64-i64:64-i128:128-f80:128-n8:16:32:64-S128"
target triple = "x86_64-pc-linux-gnu"

%struct.Plan = type { i32, i32, double, double, double, i32, i8, i8, i8, i32, ptr, ptr, ptr, ptr, ptr, ptr, ptr }
%struct.AggState = type { %struct.ScanState, ptr, i32, i32, i32, i32, ptr, i32, i32, ptr, ptr, ptr, ptr, ptr, ptr, ptr, ptr, i8, i8, i32, i32, ptr, ptr, ptr, i32, i8, i32, ptr, ptr, ptr, ptr, ptr, ptr, i8, i32, ptr, ptr, ptr, ptr, ptr, ptr, i8, i8, i64, i64, i32, double, i64, i64, i64, i32, ptr, ptr, ptr, ptr }
%struct.ScanState = type { %struct.PlanState, ptr, ptr, ptr }
%struct.PlanState = type { i32, ptr, ptr, ptr, ptr, ptr, ptr, ptr, ptr, ptr, ptr, ptr, ptr, ptr, ptr, ptr, ptr, ptr, i8, ptr, ptr, ptr, ptr, ptr, i8, i8, i8, i8, i8, i8, i8, i8 }
%struct.ParallelWorkerContext = type { ptr, ptr }

; Function Attrs: nounwind uwtable
define dso_local void @ExecAggInitializeWorker(ptr noundef %0, ptr noundef %1) #0 {
  %3 = alloca ptr, align 8
  %4 = alloca ptr, align 8
  store ptr %0, ptr %3, align 8
  store ptr %1, ptr %4, align 8
  %5 = load ptr, ptr %4, align 8
  %6 = getelementptr inbounds nuw %struct.ParallelWorkerContext, ptr %5, i32 0, i32 1
  %7 = load ptr, ptr %6, align 8
  %8 = load ptr, ptr %3, align 8
  %9 = getelementptr inbounds nuw %struct.AggState, ptr %8, i32 0, i32 0
  %10 = getelementptr inbounds nuw %struct.ScanState, ptr %9, i32 0, i32 0
  %11 = getelementptr inbounds nuw %struct.PlanState, ptr %10, i32 0, i32 1
  %12 = load ptr, ptr %11, align 8
  %13 = getelementptr inbounds nuw %struct.Plan, ptr %12, i32 0, i32 9
  %14 = load i32, ptr %13, align 8
  %15 = sext i32 %14 to i64
  %16 = call ptr @shm_toc_lookup(ptr noundef %7, i64 noundef %15, i1 noundef zeroext true)
  %17 = load ptr, ptr %3, align 8
  %18 = getelementptr inbounds nuw %struct.AggState, ptr %17, i32 0, i32 54
  store ptr %16, ptr %18, align 8
  ret void
}