; Function Attrs: nounwind uwtable
define dso_local void @ExecAggInitializeWorker(ptr noundef captures(none) initializes((584, 592)) %0, ptr noundef readonly captures(none) %1) local_unnamed_addr #2 {
  %3 = getelementptr inbounds nuw i8, ptr %1, i64 8
  %4 = load ptr, ptr %3, align 8
  %5 = getelementptr inbounds nuw i8, ptr %0, i64 8
  %6 = load ptr, ptr %5, align 8
  %7 = getelementptr inbounds nuw i8, ptr %6, i64 40
  %8 = load i32, ptr %7, align 8
  %9 = sext i32 %8 to i64
  %10 = tail call ptr @shm_toc_lookup(ptr noundef %4, i64 noundef %9, i1 noundef zeroext true) #12
  %11 = getelementptr inbounds nuw i8, ptr %0, i64 584
  store ptr %10, ptr %11, align 8
  ret void
}